target datalayout = "e-m:e-p270:32:32-p271:32:32-p272:64:64-i64:64-i128:128-f80:128-n8:16:32:64-S128"
target triple = "x86_64-pc-linux-gnu"

; Function Attrs: mustprogress nounwind uwtable
define dso_local noundef float @_Z6N4Stepfffff(float noundef %0, float noundef %1, float noundef %2, float noundef %3, float noundef %4) #1 {
  %6 = alloca float, align 4
  %7 = alloca float, align 4
  %8 = alloca float, align 4
  %9 = alloca float, align 4
  %10 = alloca float, align 4
  %11 = alloca float, align 4
  %12 = alloca float, align 4
  %13 = alloca i32, align 4
  %14 = alloca float, align 4
  store float %0, ptr %7, align 4, !tbaa !14
  store float %1, ptr %8, align 4, !tbaa !14
  store float %2, ptr %9, align 4, !tbaa !14
  store float %3, ptr %10, align 4, !tbaa !14
  store float %4, ptr %11, align 4, !tbaa !14
  call void @llvm.lifetime.start.p0(i64 4, ptr %12) #8
  %15 = load float, ptr %7, align 4, !tbaa !14
  %16 = load float, ptr %8, align 4, !tbaa !14
  %17 = fmul float 3.000000e+00, %16
  %18 = call float @llvm.fmuladd.f32(float 4.000000e+00, float %15, float %17)
  %19 = load float, ptr %7, align 4, !tbaa !14
  %20 = load float, ptr %9, align 4, !tbaa !14
  %21 = fmul float 2.000000e+00, %20
  %22 = call float @llvm.fmuladd.f32(float %18, float %19, float %21)
  %23 = load float, ptr %7, align 4, !tbaa !14
  %24 = load float, ptr %10, align 4, !tbaa !14
  %25 = call float @llvm.fmuladd.f32(float %22, float %23, float %24)
  store float %25, ptr %12, align 4, !tbaa !14
  %26 = load float, ptr %12, align 4, !tbaa !14
  %27 = fcmp oeq float %26, 0.000000e+00
  br i1 %27, label %28, label %30

28:                                               ; preds = %5
  %29 = load float, ptr %7, align 4, !tbaa !14
  store float %29, ptr %6, align 4
  store i32 1, ptr %13, align 4
  br label %48

30:                                               ; preds = %5
  call void @llvm.lifetime.start.p0(i64 4, ptr %14) #8
  %31 = load float, ptr %7, align 4, !tbaa !14
  %32 = load float, ptr %8, align 4, !tbaa !14
  %33 = fadd float %31, %32
  %34 = load float, ptr %7, align 4, !tbaa !14
  %35 = load float, ptr %9, align 4, !tbaa !14
  %36 = call float @llvm.fmuladd.f32(float %33, float %34, float %35)
  %37 = load float, ptr %7, align 4, !tbaa !14
  %38 = load float, ptr %10, align 4, !tbaa !14
  %39 = call float @llvm.fmuladd.f32(float %36, float %37, float %38)
  %40 = load float, ptr %7, align 4, !tbaa !14
  %41 = load float, ptr %11, align 4, !tbaa !14
  %42 = call float @llvm.fmuladd.f32(float %39, float %40, float %41)
  store float %42, ptr %14, align 4, !tbaa !14
  %43 = load float, ptr %7, align 4, !tbaa !14
  %44 = load float, ptr %14, align 4, !tbaa !14
  %45 = load float, ptr %12, align 4, !tbaa !14
  %46 = fdiv float %44, %45
  %47 = fsub float %43, %46
  store float %47, ptr %6, align 4
  store i32 1, ptr %13, align 4
  call void @llvm.lifetime.end.p0(i64 4, ptr %14) #8
  br label %48

48:                                               ; preds = %30, %28
  call void @llvm.lifetime.end.p0(i64 4, ptr %12) #8
  %49 = load float, ptr %6, align 4
  ret float %49
}

; Function Attrs: mustprogress uwtable
define dso_local noundef i32 @_Z7SolveP4Pfffff(ptr noundef %0, float noundef %1, float noundef %2, float noundef %3, float noundef %4) #2 {
  %6 = alloca ptr, align 8
  %7 = alloca float, align 4
  %8 = alloca float, align 4
  %9 = alloca float, align 4
  %10 = alloca float, align 4
  %11 = alloca float, align 4
  %12 = alloca float, align 4
  %13 = alloca float, align 4
  %14 = alloca i32, align 4
  store ptr %0, ptr %6, align 8, !tbaa !12
  store float %1, ptr %7, align 4, !tbaa !14
  store float %2, ptr %8, align 4, !tbaa !14
  store float %3, ptr %9, align 4, !tbaa !14
  store float %4, ptr %10, align 4, !tbaa !14
  call void @llvm.lifetime.start.p0(i64 4, ptr %11) #8
  %15 = load float, ptr %10, align 4, !tbaa !14
  %16 = fpext float %15 to double
  %17 = load float, ptr %7, align 4, !tbaa !14
  %18 = fpext float %17 to double
  %19 = fmul double 2.500000e-01, %18
  %20 = load float, ptr %8, align 4, !tbaa !14
  %21 = fpext float %20 to double
  %22 = fmul double 2.500000e-01, %21
  %23 = load float, ptr %7, align 4, !tbaa !14
  %24 = fpext float %23 to double
  %25 = load float, ptr %7, align 4, !tbaa !14
  %26 = fpext float %25 to double
  %27 = fmul double 4.687500e-02, %26
  %28 = load float, ptr %7, align 4, !tbaa !14
  %29 = fpext float %28 to double
  %30 = fmul double %27, %29
  %31 = load float, ptr %7, align 4, !tbaa !14
  %32 = fpext float %31 to double
  %33 = fmul double %30, %32
  %34 = fneg double %33
  %35 = call double @llvm.fmuladd.f64(double %22, double %24, double %34)
  %36 = load float, ptr %9, align 4, !tbaa !14
  %37 = fpext float %36 to double
  %38 = fsub double %35, %37
  %39 = call double @llvm.fmuladd.f64(double %19, double %38, double %16)
  %40 = fptrunc double %39 to float
  store float %40, ptr %11, align 4, !tbaa !14
  call void @llvm.lifetime.start.p0(i64 4, ptr %12) #8
  %41 = load float, ptr %9, align 4, !tbaa !14
  %42 = fpext float %41 to double
  %43 = load float, ptr %7, align 4, !tbaa !14
  %44 = fpext float %43 to double
  %45 = fmul double 5.000000e-01, %44
  %46 = load float, ptr %7, align 4, !tbaa !14
  %47 = fpext float %46 to double
  %48 = fmul double 2.500000e-01, %47
  %49 = load float, ptr %7, align 4, !tbaa !14
  %50 = fpext float %49 to double
  %51 = load float, ptr %8, align 4, !tbaa !14
  %52 = fpext float %51 to double
  %53 = fneg double %52
  %54 = call double @llvm.fmuladd.f64(double %48, double %50, double %53)
  %55 = call double @llvm.fmuladd.f64(double %45, double %54, double %42)
  %56 = fptrunc double %55 to float
  store float %56, ptr %12, align 4, !tbaa !14
  call void @llvm.lifetime.start.p0(i64 4, ptr %13) #8
  %57 = load float, ptr %8, align 4, !tbaa !14
  %58 = fpext float %57 to double
  %59 = load float, ptr %7, align 4, !tbaa !14
  %60 = fpext float %59 to double
  %61 = fmul double 3.750000e-01, %60
  %62 = load float, ptr %7, align 4, !tbaa !14
  %63 = fpext float %62 to double
  %64 = fneg double %61
  %65 = call double @llvm.fmuladd.f64(double %64, double %63, double %58)
  %66 = fptrunc double %65 to float
  store float %66, ptr %13, align 4, !tbaa !14
  call void @llvm.lifetime.start.p0(i64 4, ptr %14) #8
  %67 = load ptr, ptr %6, align 8, !tbaa !12
  %68 = load float, ptr %13, align 4, !tbaa !14
  %69 = load float, ptr %12, align 4, !tbaa !14
  %70 = load float, ptr %11, align 4, !tbaa !14
  %71 = call noundef i32 @_Z9SolveP4DePffff(ptr noundef %67, float noundef %68, float noundef %69, float noundef %70)
  store i32 %71, ptr %14, align 4, !tbaa !9
  %72 = load i32, ptr %14, align 4, !tbaa !9
  %73 = icmp eq i32 %72, 4
  br i1 %73, label %74, label %99

74:                                               ; preds = %5
  %75 = load float, ptr %7, align 4, !tbaa !14
  %76 = fdiv float %75, 4.000000e+00
  %77 = load ptr, ptr %6, align 8, !tbaa !12
  %78 = getelementptr inbounds float, ptr %77, i64 0
  %79 = load float, ptr %78, align 4, !tbaa !14
  %80 = fsub float %79, %76
  store float %80, ptr %78, align 4, !tbaa !14
  %81 = load float, ptr %7, align 4, !tbaa !14
  %82 = fdiv float %81, 4.000000e+00
  %83 = load ptr, ptr %6, align 8, !tbaa !12
  %84 = getelementptr inbounds float, ptr %83, i64 1
  %85 = load float, ptr %84, align 4, !tbaa !14
  %86 = fsub float %85, %82
  store float %86, ptr %84, align 4, !tbaa !14
  %87 = load float, ptr %7, align 4, !tbaa !14
  %88 = fdiv float %87, 4.000000e+00
  %89 = load ptr, ptr %6, align 8, !tbaa !12
  %90 = getelementptr inbounds float, ptr %89, i64 2
  %91 = load float, ptr %90, align 4, !tbaa !14
  %92 = fsub float %91, %88
  store float %92, ptr %90, align 4, !tbaa !14
  %93 = load float, ptr %7, align 4, !tbaa !14
  %94 = fdiv float %93, 4.000000e+00
  %95 = load ptr, ptr %6, align 8, !tbaa !12
  %96 = getelementptr inbounds float, ptr %95, i64 3
  %97 = load float, ptr %96, align 4, !tbaa !14
  %98 = fsub float %97, %94
  store float %98, ptr %96, align 4, !tbaa !14
  br label %135

99:                                               ; preds = %5
  %100 = load i32, ptr %14, align 4, !tbaa !9
  %101 = icmp eq i32 %100, 2
  br i1 %101, label %102, label %121

102:                                              ; preds = %99
  %103 = load float, ptr %7, align 4, !tbaa !14
  %104 = fdiv float %103, 4.000000e+00
  %105 = load ptr, ptr %6, align 8, !tbaa !12
  %106 = getelementptr inbounds float, ptr %105, i64 0
  %107 = load float, ptr %106, align 4, !tbaa !14
  %108 = fsub float %107, %104
  store float %108, ptr %106, align 4, !tbaa !14
  %109 = load float, ptr %7, align 4, !tbaa !14
  %110 = fdiv float %109, 4.000000e+00
  %111 = load ptr, ptr %6, align 8, !tbaa !12
  %112 = getelementptr inbounds float, ptr %111, i64 1
  %113 = load float, ptr %112, align 4, !tbaa !14
  %114 = fsub float %113, %110
  store float %114, ptr %112, align 4, !tbaa !14
  %115 = load float, ptr %7, align 4, !tbaa !14
  %116 = fdiv float %115, 4.000000e+00
  %117 = load ptr, ptr %6, align 8, !tbaa !12
  %118 = getelementptr inbounds float, ptr %117, i64 2
  %119 = load float, ptr %118, align 4, !tbaa !14
  %120 = fsub float %119, %116
  store float %120, ptr %118, align 4, !tbaa !14
  br label %134

121:                                              ; preds = %99
  %122 = load float, ptr %7, align 4, !tbaa !14
  %123 = fdiv float %122, 4.000000e+00
  %124 = load ptr, ptr %6, align 8, !tbaa !12
  %125 = getelementptr inbounds float, ptr %124, i64 0
  %126 = load float, ptr %125, align 4, !tbaa !14
  %127 = fsub float %126, %123
  store float %127, ptr %125, align 4, !tbaa !14
  %128 = load float, ptr %7, align 4, !tbaa !14
  %129 = fdiv float %128, 4.000000e+00
  %130 = load ptr, ptr %6, align 8, !tbaa !12
  %131 = getelementptr inbounds float, ptr %130, i64 2
  %132 = load float, ptr %131, align 4, !tbaa !14
  %133 = fsub float %132, %129
  store float %133, ptr %131, align 4, !tbaa !14
  br label %134

134:                                              ; preds = %121, %102
  br label %135

135:                                              ; preds = %134, %74
  %136 = load i32, ptr %14, align 4, !tbaa !9
  %137 = icmp sgt i32 %136, 0
  br i1 %137, label %138, label %159

138:                                              ; preds = %135
  %139 = load ptr, ptr %6, align 8, !tbaa !12
  %140 = getelementptr inbounds float, ptr %139, i64 0
  %141 = load float, ptr %140, align 4, !tbaa !14
  %142 = load float, ptr %7, align 4, !tbaa !14
  %143 = load float, ptr %8, align 4, !tbaa !14
  %144 = load float, ptr %9, align 4, !tbaa !14
  %145 = load float, ptr %10, align 4, !tbaa !14
  %146 = call noundef float @_Z6N4Stepfffff(float noundef %141, float noundef %142, float noundef %143, float noundef %144, float noundef %145)
  %147 = load ptr, ptr %6, align 8, !tbaa !12
  %148 = getelementptr inbounds float, ptr %147, i64 0
  store float %146, ptr %148, align 4, !tbaa !14
  %149 = load ptr, ptr %6, align 8, !tbaa !12
  %150 = getelementptr inbounds float, ptr %149, i64 1
  %151 = load float, ptr %150, align 4, !tbaa !14
  %152 = load float, ptr %7, align 4, !tbaa !14
  %153 = load float, ptr %8, align 4, !tbaa !14
  %154 = load float, ptr %9, align 4, !tbaa !14
  %155 = load float, ptr %10, align 4, !tbaa !14
  %156 = call noundef float @_Z6N4Stepfffff(float noundef %151, float noundef %152, float noundef %153, float noundef %154, float noundef %155)
  %157 = load ptr, ptr %6, align 8, !tbaa !12
  %158 = getelementptr inbounds float, ptr %157, i64 1
  store float %156, ptr %158, align 4, !tbaa !14
  br label %159

159:                                              ; preds = %138, %135
  %160 = load i32, ptr %14, align 4, !tbaa !9
  %161 = icmp sgt i32 %160, 2
  br i1 %161, label %162, label %183

162:                                              ; preds = %159
  %163 = load ptr, ptr %6, align 8, !tbaa !12
  %164 = getelementptr inbounds float, ptr %163, i64 2
  %165 = load float, ptr %164, align 4, !tbaa !14
  %166 = load float, ptr %7, align 4, !tbaa !14
  %167 = load float, ptr %8, align 4, !tbaa !14
  %168 = load float, ptr %9, align 4, !tbaa !14
  %169 = load float, ptr %10, align 4, !tbaa !14
  %170 = call noundef float @_Z6N4Stepfffff(float noundef %165, float noundef %166, float noundef %167, float noundef %168, float noundef %169)
  %171 = load ptr, ptr %6, align 8, !tbaa !12
  %172 = getelementptr inbounds float, ptr %171, i64 2
  store float %170, ptr %172, align 4, !tbaa !14
  %173 = load ptr, ptr %6, align 8, !tbaa !12
  %174 = getelementptr inbounds float, ptr %173, i64 3
  %175 = load float, ptr %174, align 4, !tbaa !14
  %176 = load float, ptr %7, align 4, !tbaa !14
  %177 = load float, ptr %8, align 4, !tbaa !14
  %178 = load float, ptr %9, align 4, !tbaa !14
  %179 = load float, ptr %10, align 4, !tbaa !14
  %180 = call noundef float @_Z6N4Stepfffff(float noundef %175, float noundef %176, float noundef %177, float noundef %178, float noundef %179)
  %181 = load ptr, ptr %6, align 8, !tbaa !12
  %182 = getelementptr inbounds float, ptr %181, i64 3
  store float %180, ptr %182, align 4, !tbaa !14
  br label %183

183:                                              ; preds = %162, %159
  %184 = load i32, ptr %14, align 4, !tbaa !9
  call void @llvm.lifetime.end.p0(i64 4, ptr %14) #8
  call void @llvm.lifetime.end.p0(i64 4, ptr %13) #8
  call void @llvm.lifetime.end.p0(i64 4, ptr %12) #8
  call void @llvm.lifetime.end.p0(i64 4, ptr %11) #8
  ret i32 %184
}