; Function Attrs: mustprogress uwtable
define dso_local noundef range(i32 0, 5) i32 @_Z7SolveP4Pfffff(ptr noundef captures(none) initializes((0, 16)) %0, float noundef %1, float noundef %2, float noundef %3, float noundef %4) local_unnamed_addr #2 {
  %6 = fpext float %4 to double
  %7 = fpext float %1 to double
  %8 = fmul double %7, 2.500000e-01
  %9 = fpext float %2 to double
  %10 = fmul double %9, 2.500000e-01
  %11 = fmul double %7, 4.687500e-02
  %12 = fmul double %11, %7
  %13 = fneg double %7
  %14 = fmul double %12, %13
  %15 = tail call double @llvm.fmuladd.f64(double %10, double %7, double %14)
  %16 = fpext float %3 to double
  %17 = fsub double %15, %16
  %18 = tail call double @llvm.fmuladd.f64(double %8, double %17, double %6)
  %19 = fptrunc double %18 to float
  %20 = fmul double %7, 5.000000e-01
  %21 = fneg double %9
  %22 = tail call double @llvm.fmuladd.f64(double %8, double %7, double %21)
  %23 = tail call double @llvm.fmuladd.f64(double %20, double %22, double %16)
  %24 = fptrunc double %23 to float
  %25 = fmul double %7, -3.750000e-01
  %26 = tail call double @llvm.fmuladd.f64(double %25, double %7, double %9)
  %27 = fptrunc double %26 to float
  %28 = tail call noundef i32 @_Z9SolveP4DePffff(ptr noundef %0, float noundef %27, float noundef %24, float noundef %19)
  %29 = fmul float %1, 2.500000e-01
  %30 = load float, ptr %0, align 4, !tbaa !8
  %31 = fsub float %30, %29
  switch i32 %28, label %49 [
    i32 4, label %32
    i32 2, label %42
  ]

32:                                               ; preds = %5
  %33 = getelementptr inbounds nuw i8, ptr %0, i64 4
  %34 = load float, ptr %33, align 4, !tbaa !8
  %35 = fsub float %34, %29
  store float %35, ptr %33, align 4, !tbaa !8
  %36 = getelementptr inbounds nuw i8, ptr %0, i64 8
  %37 = load float, ptr %36, align 4, !tbaa !8
  %38 = fsub float %37, %29
  store float %38, ptr %36, align 4, !tbaa !8
  %39 = getelementptr inbounds nuw i8, ptr %0, i64 12
  %40 = load float, ptr %39, align 4, !tbaa !8
  %41 = fsub float %40, %29
  store float %41, ptr %39, align 4, !tbaa !8
  br label %.thread

42:                                               ; preds = %5
  %43 = getelementptr inbounds nuw i8, ptr %0, i64 4
  %44 = load float, ptr %43, align 4, !tbaa !8
  %45 = fsub float %44, %29
  store float %45, ptr %43, align 4, !tbaa !8
  %46 = getelementptr inbounds nuw i8, ptr %0, i64 8
  %47 = load float, ptr %46, align 4, !tbaa !8
  %48 = fsub float %47, %29
  store float %48, ptr %46, align 4, !tbaa !8
  br label %.thread

49:                                               ; preds = %5
  store float %31, ptr %0, align 4, !tbaa !8
  %50 = getelementptr inbounds nuw i8, ptr %0, i64 8
  %51 = load float, ptr %50, align 4, !tbaa !8
  %52 = fsub float %51, %29
  store float %52, ptr %50, align 4, !tbaa !8
  %.not = icmp eq i32 %28, 0
  br i1 %.not, label %.thread73, label %.thread

.thread:                                          ; preds = %32, %42, %49
  %53 = phi float [ %38, %32 ], [ %48, %42 ], [ %52, %49 ]
  %54 = fmul float %1, 3.000000e+00
  %55 = tail call float @llvm.fmuladd.f32(float %31, float 4.000000e+00, float %54)
  %56 = fmul float %2, 2.000000e+00
  %57 = tail call float @llvm.fmuladd.f32(float %55, float %31, float %56)
  %58 = tail call float @llvm.fmuladd.f32(float %57, float %31, float %3)
  %59 = fcmp oeq float %58, 0.000000e+00
  br i1 %59, label %_Z6N4Stepfffff.exit, label %60

60:                                               ; preds = %.thread
  %61 = fadd float %1, %31
  %62 = tail call float @llvm.fmuladd.f32(float %61, float %31, float %2)
  %63 = tail call float @llvm.fmuladd.f32(float %62, float %31, float %3)
  %64 = tail call float @llvm.fmuladd.f32(float %63, float %31, float %4)
  %65 = fdiv float %64, %58
  %66 = fsub float %31, %65
  br label %_Z6N4Stepfffff.exit

_Z6N4Stepfffff.exit:                              ; preds = %.thread, %60
  %.0.i = phi float [ %66, %60 ], [ %31, %.thread ]
  store float %.0.i, ptr %0, align 4, !tbaa !8
  %67 = getelementptr inbounds nuw i8, ptr %0, i64 4
  %68 = load float, ptr %67, align 4, !tbaa !8
  %69 = tail call float @llvm.fmuladd.f32(float %68, float 4.000000e+00, float %54)
  %70 = tail call float @llvm.fmuladd.f32(float %69, float %68, float %56)
  %71 = tail call float @llvm.fmuladd.f32(float %70, float %68, float %3)
  %72 = fcmp oeq float %71, 0.000000e+00
  br i1 %72, label %80, label %73

73:                                               ; preds = %_Z6N4Stepfffff.exit
  %74 = fadd float %1, %68
  %75 = tail call float @llvm.fmuladd.f32(float %74, float %68, float %2)
  %76 = tail call float @llvm.fmuladd.f32(float %75, float %68, float %3)
  %77 = tail call float @llvm.fmuladd.f32(float %76, float %68, float %4)
  %78 = fdiv float %77, %71
  %79 = fsub float %68, %78
  br label %80

80:                                               ; preds = %73, %_Z6N4Stepfffff.exit
  %.0.i66 = phi float [ %79, %73 ], [ %68, %_Z6N4Stepfffff.exit ]
  store float %.0.i66, ptr %67, align 4, !tbaa !8
  %81 = icmp samesign ugt i32 %28, 2
  br i1 %81, label %82, label %.thread73

82:                                               ; preds = %80
  %83 = getelementptr inbounds nuw i8, ptr %0, i64 8
  %84 = tail call float @llvm.fmuladd.f32(float %53, float 4.000000e+00, float %54)
  %85 = tail call float @llvm.fmuladd.f32(float %84, float %53, float %56)
  %86 = tail call float @llvm.fmuladd.f32(float %85, float %53, float %3)
  %87 = fcmp oeq float %86, 0.000000e+00
  br i1 %87, label %_Z6N4Stepfffff.exit69, label %88

88:                                               ; preds = %82
  %89 = fadd float %1, %53
  %90 = tail call float @llvm.fmuladd.f32(float %89, float %53, float %2)
  %91 = tail call float @llvm.fmuladd.f32(float %90, float %53, float %3)
  %92 = tail call float @llvm.fmuladd.f32(float %91, float %53, float %4)
  %93 = fdiv float %92, %86
  %94 = fsub float %53, %93
  br label %_Z6N4Stepfffff.exit69

_Z6N4Stepfffff.exit69:                            ; preds = %82, %88
  %.0.i68 = phi float [ %94, %88 ], [ %53, %82 ]
  store float %.0.i68, ptr %83, align 4, !tbaa !8
  %95 = getelementptr inbounds nuw i8, ptr %0, i64 12
  %96 = load float, ptr %95, align 4, !tbaa !8
  %97 = tail call float @llvm.fmuladd.f32(float %96, float 4.000000e+00, float %54)
  %98 = tail call float @llvm.fmuladd.f32(float %97, float %96, float %56)
  %99 = tail call float @llvm.fmuladd.f32(float %98, float %96, float %3)
  %100 = fcmp oeq float %99, 0.000000e+00
  br i1 %100, label %_Z6N4Stepfffff.exit71, label %101

101:                                              ; preds = %_Z6N4Stepfffff.exit69
  %102 = fadd float %1, %96
  %103 = tail call float @llvm.fmuladd.f32(float %102, float %96, float %2)
  %104 = tail call float @llvm.fmuladd.f32(float %103, float %96, float %3)
  %105 = tail call float @llvm.fmuladd.f32(float %104, float %96, float %4)
  %106 = fdiv float %105, %99
  %107 = fsub float %96, %106
  br label %_Z6N4Stepfffff.exit71

_Z6N4Stepfffff.exit71:                            ; preds = %_Z6N4Stepfffff.exit69, %101
  %.0.i70 = phi float [ %107, %101 ], [ %96, %_Z6N4Stepfffff.exit69 ]
  store float %.0.i70, ptr %95, align 4, !tbaa !8
  br label %.thread73

.thread73:                                        ; preds = %49, %_Z6N4Stepfffff.exit71, %80
  ret i32 %28
}